target datalayout = "e-m:e-p270:32:32-p271:32:32-p272:64:64-i64:64-i128:128-f80:128-n8:16:32:64-S128"
target triple = "x86_64-pc-linux-gnu"

%struct._value_string_ext = type { ptr, i32, i32, ptr, ptr }

@gsm_a_dtap_msg_gmm_strings_ext = internal global %struct._value_string_ext { ptr @_try_val_to_str_ext_init, i32 0, i32 23, ptr @gsm_a_dtap_msg_gmm_strings, ptr @.str.1094 }, align 8
@hf_gsm_a_dtap_msg_gmm_type = internal global i32 0, align 4
@ett_gsm_dtap_msg_gmm = internal global [24 x i32] zeroinitializer, align 16

; Function Attrs: null_pointer_is_valid sspstrong uwtable
define hidden void @get_gmm_msg_params(i8 noundef zeroext %0, ptr noundef %1, ptr noundef %2, ptr noundef %3, ptr noundef %4) #1 {
  %6 = alloca i8, align 1
  %7 = alloca ptr, align 8
  %8 = alloca ptr, align 8
  %9 = alloca ptr, align 8
  %10 = alloca ptr, align 8
  %11 = alloca i32, align 4
  store i8 %0, ptr %6, align 1
  store ptr %1, ptr %7, align 8
  store ptr %2, ptr %8, align 8
  store ptr %3, ptr %9, align 8
  store ptr %4, ptr %10, align 8
  call void @llvm.lifetime.start.p0(i64 4, ptr %11) #6
  %12 = load i8, ptr %6, align 1
  %13 = zext i8 %12 to i32
  %14 = and i32 %13, 255
  %15 = call ptr @try_val_to_str_idx_ext(i32 noundef %14, ptr noundef @gsm_a_dtap_msg_gmm_strings_ext, ptr noundef %11)
  %16 = load ptr, ptr %7, align 8
  store ptr %15, ptr %16, align 8
  %17 = load i32, ptr @hf_gsm_a_dtap_msg_gmm_type, align 4
  %18 = load ptr, ptr %9, align 8
  store i32 %17, ptr %18, align 4
  %19 = load ptr, ptr %7, align 8
  %20 = load ptr, ptr %19, align 8
  %21 = icmp ne ptr %20, null
  br i1 %21, label %22, label %33

22:                                               ; preds = %5
  %23 = load i32, ptr %11, align 4
  %24 = sext i32 %23 to i64
  %25 = getelementptr [24 x i32], ptr @ett_gsm_dtap_msg_gmm, i64 0, i64 %24
  %26 = load i32, ptr %25, align 4
  %27 = load ptr, ptr %8, align 8
  store i32 %26, ptr %27, align 4
  %28 = load i32, ptr %11, align 4
  %29 = sext i32 %28 to i64
  %30 = getelementptr [24 x ptr], ptr @dtap_msg_gmm_fcn, i64 0, i64 %29
  %31 = load ptr, ptr %30, align 8
  %32 = load ptr, ptr %10, align 8
  store ptr %31, ptr %32, align 8
  br label %33

33:                                               ; preds = %22, %5
  call void @llvm.lifetime.end.p0(i64 4, ptr %11) #6
  ret void
}