; Function Attrs: null_pointer_is_valid sspstrong uwtable
define hidden void @get_gmm_msg_params(i8 noundef zeroext %0, ptr noundef captures(none) initializes((0, 8)) %1, ptr noundef writeonly captures(none) %2, ptr noundef writeonly captures(none) initializes((0, 4)) %3, ptr noundef writeonly captures(none) %4) local_unnamed_addr #1 {
  %6 = alloca i32, align 4
  call void @llvm.lifetime.start.p0(i64 4, ptr nonnull %6) #6
  %7 = zext i8 %0 to i32
  %8 = call ptr @try_val_to_str_idx_ext(i32 noundef %7, ptr noundef nonnull @gsm_a_dtap_msg_gmm_strings_ext, ptr noundef nonnull %6)
  store ptr %8, ptr %1, align 8
  %9 = load i32, ptr @hf_gsm_a_dtap_msg_gmm_type, align 4
  store i32 %9, ptr %3, align 4
  %10 = load ptr, ptr %1, align 8
  %.not = icmp eq ptr %10, null
  br i1 %.not, label %18, label %11

11:                                               ; preds = %5
  %12 = load i32, ptr %6, align 4
  %13 = sext i32 %12 to i64
  %14 = getelementptr [24 x i32], ptr @ett_gsm_dtap_msg_gmm, i64 0, i64 %13
  %15 = load i32, ptr %14, align 4
  store i32 %15, ptr %2, align 4
  %16 = getelementptr [24 x ptr], ptr @dtap_msg_gmm_fcn, i64 0, i64 %13
  %17 = load ptr, ptr %16, align 8
  store ptr %17, ptr %4, align 8
  br label %18

18:                                               ; preds = %11, %5
  call void @llvm.lifetime.end.p0(i64 4, ptr nonnull %6) #6
  ret void
}